target datalayout = "e-m:e-p270:32:32-p271:32:32-p272:64:64-i64:64-i128:128-f80:128-n8:16:32:64-S128"
target triple = "x86_64-pc-linux-gnu"

%struct.ltlNode_t = type { i32, ptr, ptr, ptr, ptr }
%struct.Abc_Ntk_t_ = type { i32, i32, ptr, ptr, ptr, ptr, ptr, ptr, ptr, ptr, ptr, ptr, ptr, [11 x i32], i32, i32, i32, i32, ptr, i32, ptr, ptr, i32, i32, i32, double, i32, %struct.Vec_Int_t_, ptr, ptr, ptr, ptr, ptr, float, i32, ptr, ptr, ptr, ptr, ptr, ptr, ptr, ptr, ptr, ptr, ptr, ptr, ptr, ptr, ptr, ptr, ptr, ptr, ptr, ptr, ptr, ptr }
%struct.Vec_Int_t_ = type { i32, i32, ptr }
%struct.Vec_Ptr_t_ = type { i32, i32, ptr }

@.str.20 = private unnamed_addr constant [5 x i8] c"true\00", align 1
@.str.21 = private unnamed_addr constant [6 x i8] c"false\00", align 1
@.str.22 = private unnamed_addr constant [51 x i8] c"\0AVariable name \22%s\22 not found in the PO name list\0A\00", align 1
@.str.23 = private unnamed_addr constant [49 x i8] c"\0AUNSUPPORTED LTL NODE TYPE:: Aborting execution\0A\00", align 1

; Function Attrs: inlinehint nounwind uwtable
define internal ptr @Vec_PtrEntry(ptr noundef %0, i32 noundef %1) #3 {
  %3 = alloca ptr, align 8
  %4 = alloca i32, align 4
  store ptr %0, ptr %3, align 8, !tbaa !48
  store i32 %1, ptr %4, align 4, !tbaa !3
  %5 = load ptr, ptr %3, align 8, !tbaa !48
  %6 = getelementptr inbounds nuw %struct.Vec_Ptr_t_, ptr %5, i32 0, i32 2
  %7 = load ptr, ptr %6, align 8, !tbaa !49
  %8 = load i32, ptr %4, align 4, !tbaa !3
  %9 = sext i32 %8 to i64
  %10 = getelementptr inbounds ptr, ptr %7, i64 %9
  %11 = load ptr, ptr %10, align 8, !tbaa !53
  ret ptr %11
}

; Function Attrs: inlinehint nounwind uwtable
define internal i32 @Vec_PtrSize(ptr noundef %0) #3 {
  %2 = alloca ptr, align 8
  store ptr %0, ptr %2, align 8, !tbaa !48
  %3 = load ptr, ptr %2, align 8, !tbaa !48
  %4 = getelementptr inbounds nuw %struct.Vec_Ptr_t_, ptr %3, i32 0, i32 1
  %5 = load i32, ptr %4, align 4, !tbaa !51
  ret i32 %5
}

; Function Attrs: inlinehint nounwind uwtable
define internal ptr @Abc_NtkPo(ptr noundef %0, i32 noundef %1) #3 {
  %3 = alloca ptr, align 8
  %4 = alloca i32, align 4
  store ptr %0, ptr %3, align 8, !tbaa !20
  store i32 %1, ptr %4, align 4, !tbaa !3
  %5 = load ptr, ptr %3, align 8, !tbaa !20
  %6 = getelementptr inbounds nuw %struct.Abc_Ntk_t_, ptr %5, i32 0, i32 7
  %7 = load ptr, ptr %6, align 8, !tbaa !72
  %8 = load i32, ptr %4, align 4, !tbaa !3
  %9 = call ptr @Vec_PtrEntry(ptr noundef %7, i32 noundef %8)
  ret ptr %9
}

; Function Attrs: inlinehint nounwind uwtable
define internal i32 @Abc_NtkPoNum(ptr noundef %0) #3 {
  %2 = alloca ptr, align 8
  store ptr %0, ptr %2, align 8, !tbaa !20
  %3 = load ptr, ptr %2, align 8, !tbaa !20
  %4 = getelementptr inbounds nuw %struct.Abc_Ntk_t_, ptr %3, i32 0, i32 7
  %5 = load ptr, ptr %4, align 8, !tbaa !72
  %6 = call i32 @Vec_PtrSize(ptr noundef %5)
  ret i32 %6
}

; Function Attrs: nounwind uwtable
define i32 @checkBooleanConstant(ptr noundef %0) #0 {
  %2 = alloca i32, align 4
  %3 = alloca ptr, align 8
  store ptr %0, ptr %3, align 8, !tbaa !45
  %4 = load ptr, ptr %3, align 8, !tbaa !45
  %5 = call i32 @strcmp(ptr noundef %4, ptr noundef @.str.20) #11
  %6 = icmp eq i32 %5, 0
  br i1 %6, label %7, label %8

7:                                                ; preds = %1
  store i32 1, ptr %2, align 4
  br label %14

8:                                                ; preds = %1
  %9 = load ptr, ptr %3, align 8, !tbaa !45
  %10 = call i32 @strcmp(ptr noundef %9, ptr noundef @.str.21) #11
  %11 = icmp eq i32 %10, 0
  br i1 %11, label %12, label %13

12:                                               ; preds = %8
  store i32 0, ptr %2, align 4
  br label %14

13:                                               ; preds = %8
  store i32 -1, ptr %2, align 4
  br label %14

14:                                               ; preds = %13, %12, %7
  %15 = load i32, ptr %2, align 4
  ret i32 %15
}

; Function Attrs: nounwind uwtable
define i32 @checkSignalNameExistence(ptr noundef %0, ptr noundef %1) #0 {
  %3 = alloca i32, align 4
  %4 = alloca ptr, align 8
  %5 = alloca ptr, align 8
  %6 = alloca ptr, align 8
  %7 = alloca ptr, align 8
  %8 = alloca i32, align 4
  %9 = alloca i32, align 4
  store ptr %0, ptr %4, align 8, !tbaa !20
  store ptr %1, ptr %5, align 8, !tbaa !7
  call void @llvm.lifetime.start.p0(i64 8, ptr %6) #9
  call void @llvm.lifetime.start.p0(i64 8, ptr %7) #9
  call void @llvm.lifetime.start.p0(i64 4, ptr %8) #9
  %10 = load ptr, ptr %5, align 8, !tbaa !7
  %11 = getelementptr inbounds nuw %struct.ltlNode_t, ptr %10, i32 0, i32 0
  %12 = load i32, ptr %11, align 8, !tbaa !10
  switch i32 %12, label %70 [
    i32 8, label %13
    i32 0, label %47
    i32 1, label %47
    i32 3, label %47
    i32 7, label %47
    i32 2, label %64
    i32 6, label %64
    i32 4, label %64
    i32 5, label %64
  ]

13:                                               ; preds = %2
  %14 = load ptr, ptr %5, align 8, !tbaa !7
  %15 = getelementptr inbounds nuw %struct.ltlNode_t, ptr %14, i32 0, i32 1
  %16 = load ptr, ptr %15, align 8, !tbaa !15
  store ptr %16, ptr %6, align 8, !tbaa !45
  %17 = load ptr, ptr %6, align 8, !tbaa !45
  %18 = call i32 @checkBooleanConstant(ptr noundef %17)
  %19 = icmp ne i32 %18, -1
  br i1 %19, label %20, label %21

20:                                               ; preds = %13
  store i32 1, ptr %3, align 4
  store i32 1, ptr %9, align 4
  br label %72

21:                                               ; preds = %13
  store i32 0, ptr %8, align 4, !tbaa !3
  br label %22

22:                                               ; preds = %41, %21
  %23 = load i32, ptr %8, align 4, !tbaa !3
  %24 = load ptr, ptr %4, align 8, !tbaa !20
  %25 = call i32 @Abc_NtkPoNum(ptr noundef %24)
  %26 = icmp slt i32 %23, %25
  br i1 %26, label %27, label %31

27:                                               ; preds = %22
  %28 = load ptr, ptr %4, align 8, !tbaa !20
  %29 = load i32, ptr %8, align 4, !tbaa !3
  %30 = call ptr @Abc_NtkPo(ptr noundef %28, i32 noundef %29)
  store ptr %30, ptr %7, align 8, !tbaa !69
  br label %31

31:                                               ; preds = %27, %22
  %32 = phi i1 [ false, %22 ], [ true, %27 ]
  br i1 %32, label %33, label %44

33:                                               ; preds = %31
  %34 = load ptr, ptr %7, align 8, !tbaa !69
  %35 = call ptr @Abc_ObjName(ptr noundef %34)
  %36 = load ptr, ptr %6, align 8, !tbaa !45
  %37 = call i32 @strcmp(ptr noundef %35, ptr noundef %36) #11
  %38 = icmp eq i32 %37, 0
  br i1 %38, label %39, label %40

39:                                               ; preds = %33
  store i32 1, ptr %3, align 4
  store i32 1, ptr %9, align 4
  br label %72

40:                                               ; preds = %33
  br label %41

41:                                               ; preds = %40
  %42 = load i32, ptr %8, align 4, !tbaa !3
  %43 = add nsw i32 %42, 1
  store i32 %43, ptr %8, align 4, !tbaa !3
  br label %22, !llvm.loop !71

44:                                               ; preds = %31
  %45 = load ptr, ptr %6, align 8, !tbaa !45
  %46 = call i32 (ptr, ...) @printf(ptr noundef @.str.22, ptr noundef %45)
  store i32 0, ptr %3, align 4
  store i32 1, ptr %9, align 4
  br label %72

47:                                               ; preds = %2, %2, %2, %2
  %48 = load ptr, ptr %4, align 8, !tbaa !20
  %49 = load ptr, ptr %5, align 8, !tbaa !7
  %50 = getelementptr inbounds nuw %struct.ltlNode_t, ptr %49, i32 0, i32 3
  %51 = load ptr, ptr %50, align 8, !tbaa !16
  %52 = call i32 @checkSignalNameExistence(ptr noundef %48, ptr noundef %51)
  %53 = icmp ne i32 %52, 0
  br i1 %53, label %54, label %61

54:                                               ; preds = %47
  %55 = load ptr, ptr %4, align 8, !tbaa !20
  %56 = load ptr, ptr %5, align 8, !tbaa !7
  %57 = getelementptr inbounds nuw %struct.ltlNode_t, ptr %56, i32 0, i32 4
  %58 = load ptr, ptr %57, align 8, !tbaa !17
  %59 = call i32 @checkSignalNameExistence(ptr noundef %55, ptr noundef %58)
  %60 = icmp ne i32 %59, 0
  br label %61

61:                                               ; preds = %54, %47
  %62 = phi i1 [ false, %47 ], [ %60, %54 ]
  %63 = zext i1 %62 to i32
  store i32 %63, ptr %3, align 4
  store i32 1, ptr %9, align 4
  br label %72

64:                                               ; preds = %2, %2, %2, %2
  %65 = load ptr, ptr %4, align 8, !tbaa !20
  %66 = load ptr, ptr %5, align 8, !tbaa !7
  %67 = getelementptr inbounds nuw %struct.ltlNode_t, ptr %66, i32 0, i32 3
  %68 = load ptr, ptr %67, align 8, !tbaa !16
  %69 = call i32 @checkSignalNameExistence(ptr noundef %65, ptr noundef %68)
  store i32 %69, ptr %3, align 4
  store i32 1, ptr %9, align 4
  br label %72

70:                                               ; preds = %2
  %71 = call i32 (ptr, ...) @printf(ptr noundef @.str.23)
  call void @exit(i32 noundef 0) #12
  unreachable

72:                                               ; preds = %64, %61, %44, %39, %20
  call void @llvm.lifetime.end.p0(i64 4, ptr %8) #9
  call void @llvm.lifetime.end.p0(i64 8, ptr %7) #9
  call void @llvm.lifetime.end.p0(i64 8, ptr %6) #9
  %73 = load i32, ptr %3, align 4
  ret i32 %73
}