; Function Attrs: nounwind uwtable
define range(i32 0, 2) i32 @checkSignalNameExistence(ptr noundef readonly captures(none) %0, ptr noundef readonly captures(none) %1) local_unnamed_addr #3 {
  br label %tailrecurse

tailrecurse:                                      ; preds = %tailrecurse.backedge, %2
  %.tr23 = phi ptr [ %1, %2 ], [ %.tr23.be, %tailrecurse.backedge ]
  %3 = load i32, ptr %.tr23, align 8, !tbaa !3
  switch i32 %3, label %29 [
    i32 8, label %4
    i32 0, label %24
    i32 1, label %24
    i32 3, label %24
    i32 7, label %24
    i32 2, label %tailrecurse.backedge
    i32 6, label %tailrecurse.backedge
    i32 4, label %tailrecurse.backedge
    i32 5, label %tailrecurse.backedge
  ]

4:                                                ; preds = %tailrecurse
  %5 = getelementptr inbounds nuw i8, ptr %.tr23, i64 8
  %6 = load ptr, ptr %5, align 8, !tbaa !47
  %7 = tail call i32 @strcmp(ptr noundef nonnull readonly dereferenceable(1) %6, ptr noundef nonnull dereferenceable(5) @.str.20) #24
  %8 = icmp eq i32 %7, 0
  br i1 %8, label %checkBooleanConstant.exit.thread, label %checkBooleanConstant.exit

checkBooleanConstant.exit:                        ; preds = %4
  %9 = tail call i32 @strcmp(ptr noundef nonnull readonly dereferenceable(1) %6, ptr noundef nonnull dereferenceable(6) @.str.21) #24
  %.not22 = icmp eq i32 %9, 0
  br i1 %.not22, label %checkBooleanConstant.exit.thread, label %.preheader

.preheader:                                       ; preds = %checkBooleanConstant.exit
  %10 = getelementptr i8, ptr %0, i64 48
  %.val27 = load ptr, ptr %10, align 8, !tbaa !57
  %11 = getelementptr i8, ptr %.val27, i64 4
  %.val.val28 = load i32, ptr %11, align 4, !tbaa !38
  %12 = icmp sgt i32 %.val.val28, 0
  br i1 %12, label %.lr.ph, label %.critedge

13:                                               ; preds = %.lr.ph
  %indvars.iv.next = add nuw nsw i64 %indvars.iv, 1
  %.val = load ptr, ptr %10, align 8, !tbaa !57
  %14 = getelementptr i8, ptr %.val, i64 4
  %.val.val = load i32, ptr %14, align 4, !tbaa !38
  %15 = sext i32 %.val.val to i64
  %16 = icmp slt i64 %indvars.iv.next, %15
  br i1 %16, label %.lr.ph, label %.critedge, !llvm.loop !58

.lr.ph:                                           ; preds = %.preheader, %13
  %indvars.iv = phi i64 [ %indvars.iv.next, %13 ], [ 0, %.preheader ]
  %.val30 = phi ptr [ %.val, %13 ], [ %.val27, %.preheader ]
  %17 = getelementptr i8, ptr %.val30, i64 8
  %.val19.val = load ptr, ptr %17, align 8, !tbaa !27
  %18 = getelementptr inbounds nuw ptr, ptr %.val19.val, i64 %indvars.iv
  %19 = load ptr, ptr %18, align 8, !tbaa !40
  %20 = tail call ptr @Abc_ObjName(ptr noundef %19) #23
  %21 = tail call i32 @strcmp(ptr noundef nonnull dereferenceable(1) %20, ptr noundef nonnull dereferenceable(1) %6) #24
  %22 = icmp eq i32 %21, 0
  br i1 %22, label %checkBooleanConstant.exit.thread, label %13

.critedge:                                        ; preds = %13, %.preheader
  %23 = tail call i32 (ptr, ...) @printf(ptr noundef nonnull dereferenceable(1) @.str.22, ptr noundef nonnull %6)
  br label %checkBooleanConstant.exit.thread

24:                                               ; preds = %tailrecurse, %tailrecurse, %tailrecurse, %tailrecurse
  %25 = getelementptr inbounds nuw i8, ptr %.tr23, i64 24
  %26 = load ptr, ptr %25, align 8, !tbaa !46
  %27 = tail call i32 @checkSignalNameExistence(ptr noundef %0, ptr noundef %26)
  %.not = icmp eq i32 %27, 0
  br i1 %.not, label %checkBooleanConstant.exit.thread, label %tailrecurse.backedge

tailrecurse.backedge:                             ; preds = %24, %tailrecurse, %tailrecurse, %tailrecurse, %tailrecurse
  %.sink = phi i64 [ 24, %tailrecurse ], [ 24, %tailrecurse ], [ 24, %tailrecurse ], [ 24, %tailrecurse ], [ 32, %24 ]
  %28 = getelementptr inbounds nuw i8, ptr %.tr23, i64 %.sink
  %.tr23.be = load ptr, ptr %28, align 8, !tbaa !50
  br label %tailrecurse

29:                                               ; preds = %tailrecurse
  %puts = tail call i32 @puts(ptr nonnull dereferenceable(1) @str.9)
  tail call void @exit(i32 noundef 0) #26
  unreachable

checkBooleanConstant.exit.thread:                 ; preds = %24, %.lr.ph, %4, %checkBooleanConstant.exit, %.critedge
  %.017 = phi i32 [ 0, %.critedge ], [ 1, %checkBooleanConstant.exit ], [ 1, %4 ], [ 1, %.lr.ph ], [ 0, %24 ]
  ret i32 %.017
}